; Function Attrs: mustprogress uwtable
define hidden void @_ZNK10params_ref7displayERSoPKc(ptr nocapture noundef nonnull readonly align 8 dereferenceable(8) %this, ptr noundef nonnull align 8 dereferenceable(8) %out, ptr noundef %k) local_unnamed_addr #3 align 2 {
entry:
  %ref.tmp = alloca %class.symbol, align 8
  call void @_ZN6symbolC1EPKc(ptr noundef nonnull align 8 dereferenceable(8) %ref.tmp, ptr noundef %k)
  %0 = load ptr, ptr %this, align 8
  %tobool.not.i = icmp eq ptr %0, null
  br i1 %tobool.not.i, label %if.else.i, label %if.then.i

if.then.i:                                        ; preds = %entry
  call void @_ZNK6params7displayERSoRK6symbol(ptr noundef nonnull align 8 dereferenceable(12) %0, ptr noundef nonnull align 8 dereferenceable(8) %out, ptr noundef nonnull align 8 dereferenceable(8) %ref.tmp)
  br label %_ZNK10params_ref7displayERSoRK6symbol.exit

if.else.i:                                        ; preds = %entry
  %call.i = call noundef nonnull align 8 dereferenceable(8) ptr @_ZStlsISt11char_traitsIcEERSt13basic_ostreamIcT_ES5_PKc(ptr noundef nonnull align 8 dereferenceable(8) %out, ptr noundef nonnull @.str.21)
  br label %_ZNK10params_ref7displayERSoRK6symbol.exit

_ZNK10params_ref7displayERSoRK6symbol.exit:       ; preds = %if.then.i, %if.else.i
  ret void
}